target datalayout = "e-m:e-p270:32:32-p271:32:32-p272:64:64-i64:64-i128:128-f80:128-n8:16:32:64-S128"
target triple = "x86_64-pc-linux-gnu"

%struct._zend_llist = type { ptr, ptr, i64, i64, ptr, i8, ptr }
%struct._zend_executor_globals = type { %struct._zval_struct, %struct._zval_struct, [32 x ptr], ptr, ptr, %struct._zend_array, %struct._zend_array, ptr, i32, i8, %struct._zval_struct, i32, ptr, ptr, ptr, ptr, ptr, ptr, i64, ptr, ptr, i32, ptr, i32, i64, i32, i32, i32, i8, i8, %struct.zend_atomic_bool_s, %struct.zend_atomic_bool_s, ptr, i64, ptr, ptr, %struct._zend_array, %struct._zend_array, i32, i8, %struct._zval_struct, %struct._zval_struct, %struct._zend_stack, %struct._zend_stack, %struct._zend_stack, ptr, i32, i32, i64, ptr, ptr, ptr, %struct._zend_objects_store, %struct._zend_lazy_objects_store, ptr, ptr, ptr, [3 x %struct._zend_op], ptr, i8, i8, i64, i32, i32, ptr, [16 x %struct._HashTableIterator], ptr, %union._zend_function, %struct._zend_op, %struct._zend_array, i64, %struct.zend_get_gc_buffer, ptr, ptr, ptr, i64, i8, i32, ptr, ptr, i64, %struct._zend_call_stack, i64, i64, %struct._zend_strtod_state, [6 x ptr] }
%struct.zend_atomic_bool_s = type { i8 }
%struct._zval_struct = type { %union._zend_value, %union.anon, %union.anon.2 }
%union._zend_value = type { i64 }
%union.anon = type { i32 }
%union.anon.2 = type { i32 }
%struct._zend_stack = type { i32, i32, i32, ptr }
%struct._zend_objects_store = type { ptr, i32, i32, i32 }
%struct._zend_lazy_objects_store = type { %struct._zend_array }
%struct._HashTableIterator = type { ptr, i32, i32 }
%union._zend_function = type { %struct._zend_op_array }
%struct._zend_op_array = type { i8, [3 x i8], i32, ptr, ptr, ptr, i32, i32, ptr, ptr, ptr, ptr, i32, ptr, i32, i32, i32, ptr, ptr, ptr, ptr, ptr, i32, i32, ptr, ptr, ptr, i32, i32, i32, i32, ptr, ptr, [6 x ptr] }
%struct._zend_op = type { ptr, %union._znode_op, %union._znode_op, %union._znode_op, i32, i32, i8, i8, i8, i8 }
%union._znode_op = type { i32 }
%struct._zend_array = type { %struct._zend_refcounted_h, %union.anon.4, i32, %union.anon.6, i32, i32, i32, i32, i64, ptr }
%struct._zend_refcounted_h = type { i32, %union.anon.3 }
%union.anon.3 = type { i32 }
%union.anon.4 = type { i32 }
%union.anon.6 = type { ptr }
%struct.zend_get_gc_buffer = type { ptr, ptr, ptr }
%struct._zend_call_stack = type { ptr, i64 }
%struct._zend_strtod_state = type { [8 x ptr], ptr, ptr }
%struct._zend_compiler_globals = type { %struct._zend_stack, ptr, ptr, i32, ptr, ptr, ptr, ptr, i8, i8, i8, i8, i8, %struct._zend_llist, ptr, i8, i8, i8, i8, ptr, i32, i32, %struct._zend_oparray_context, %struct._zend_file_context, ptr, %struct._zend_array, ptr, i64, i8, i8, i8, ptr, ptr, %struct._zend_stack, ptr, i32, ptr, ptr, i64, i64, ptr, ptr, ptr, ptr, i32, ptr, i32, %struct._zend_stack }
%struct._zend_oparray_context = type { ptr, ptr, i32, i32, i32, i32, i32, i32, i32, ptr, ptr, ptr, i32, i8 }
%struct._zend_file_context = type { %struct._zend_declarables, ptr, i8, i8, ptr, ptr, ptr, %struct._zend_array }
%struct._zend_declarables = type { i64 }
%struct._zend_internal_function = type { i8, [3 x i8], i32, ptr, ptr, ptr, i32, i32, ptr, ptr, ptr, ptr, i32, ptr, ptr, ptr, ptr, [6 x ptr] }
%struct._Bucket = type { %struct._zval_struct, i64, ptr }
%struct._zend_class_entry = type { i8, ptr, %union.anon.8, i32, i32, i32, i32, ptr, ptr, ptr, %struct._zend_array, %struct._zend_array, %struct._zend_array, ptr, ptr, ptr, ptr, ptr, ptr, ptr, ptr, ptr, ptr, ptr, ptr, ptr, ptr, ptr, ptr, ptr, ptr, ptr, %union.anon.9, ptr, ptr, ptr, ptr, i32, i32, i32, i32, %union.anon.10, ptr, ptr, ptr, ptr, i32, ptr, ptr, %union.anon.11 }
%union.anon.8 = type { ptr }
%union.anon.9 = type { ptr }
%union.anon.10 = type { ptr }
%union.anon.11 = type { %struct.anon.12 }
%struct.anon.12 = type { ptr, i32, i32 }
%struct.anon.0 = type { i8, i8, %union.anon.1 }
%union.anon.1 = type { i16 }

@zend_observers_fcall_list = internal global %struct._zend_llist zeroinitializer, align 8
@zend_observer_fcall_op_array_extension = dso_local global i32 0, align 4
@zend_observer_fcall_internal_function_extension = dso_local global i32 0, align 4
@.str = private unnamed_addr constant [14 x i8] c"Zend Observer\00", align 1
@executor_globals = external global %struct._zend_executor_globals, align 8
@compiler_globals = external global %struct._zend_compiler_globals, align 8

; Function Attrs: alwaysinline nounwind uwtable
define internal zeroext i8 @zval_get_type(ptr noundef %0) #3 {
  %2 = alloca ptr, align 8
  store ptr %0, ptr %2, align 8, !tbaa !37
  %3 = load ptr, ptr %2, align 8, !tbaa !37
  %4 = getelementptr inbounds nuw %struct._zval_struct, ptr %3, i32 0, i32 1
  %5 = getelementptr inbounds nuw %struct.anon.0, ptr %4, i32 0, i32 0
  %6 = load i8, ptr %5, align 8, !tbaa !35
  ret i8 %6
}

; Function Attrs: nounwind uwtable
define dso_local void @zend_observer_post_startup() #0 {
  %1 = alloca ptr, align 8
  %2 = alloca ptr, align 8
  %3 = alloca i32, align 4
  %4 = alloca i64, align 8
  %5 = alloca ptr, align 8
  %6 = alloca ptr, align 8
  %7 = alloca ptr, align 8
  %8 = alloca ptr, align 8
  %9 = alloca ptr, align 8
  %10 = alloca ptr, align 8
  %11 = alloca i32, align 4
  %12 = alloca ptr, align 8
  %13 = alloca ptr, align 8
  %14 = alloca ptr, align 8
  %15 = alloca ptr, align 8
  %16 = load i64, ptr getelementptr inbounds nuw (%struct._zend_llist, ptr @zend_observers_fcall_list, i32 0, i32 2), align 8, !tbaa !10
  %17 = icmp ne i64 %16, 0
  br i1 %17, label %18, label %182

18:                                               ; preds = %0
  %19 = load i64, ptr getelementptr inbounds nuw (%struct._zend_llist, ptr @zend_observers_fcall_list, i32 0, i32 2), align 8, !tbaa !10
  %20 = trunc i64 %19 to i32
  %21 = mul nsw i32 %20, 2
  %22 = call i32 @zend_get_op_array_extension_handles(ptr noundef @.str, i32 noundef %21)
  store i32 %22, ptr @zend_observer_fcall_op_array_extension, align 4, !tbaa !8
  %23 = load i64, ptr getelementptr inbounds nuw (%struct._zend_llist, ptr @zend_observers_fcall_list, i32 0, i32 2), align 8, !tbaa !10
  %24 = trunc i64 %23 to i32
  %25 = mul nsw i32 %24, 2
  %26 = call i32 @zend_get_internal_function_extension_handles(ptr noundef @.str, i32 noundef %25)
  store i32 %26, ptr @zend_observer_fcall_internal_function_extension, align 4, !tbaa !8
  call void @zend_vm_set_opcode_handler(ptr noundef getelementptr inbounds nuw (%struct._zend_executor_globals, ptr @executor_globals, i32 0, i32 68))
  call void @zend_vm_set_opcode_handler(ptr noundef getelementptr inbounds nuw (%struct._zend_executor_globals, ptr @executor_globals, i32 0, i32 57))
  call void @zend_vm_set_opcode_handler(ptr noundef getelementptr inbounds (%struct._zend_op, ptr getelementptr inbounds nuw (%struct._zend_executor_globals, ptr @executor_globals, i32 0, i32 57), i64 1))
  call void @zend_vm_set_opcode_handler(ptr noundef getelementptr inbounds (%struct._zend_op, ptr getelementptr inbounds nuw (%struct._zend_executor_globals, ptr @executor_globals, i32 0, i32 57), i64 2))
  call void @llvm.lifetime.start.p0(i64 8, ptr %1) #8
  br label %27

27:                                               ; preds = %18
  call void @llvm.lifetime.start.p0(i64 8, ptr %2) #8
  %28 = load ptr, ptr getelementptr inbounds nuw (%struct._zend_compiler_globals, ptr @compiler_globals, i32 0, i32 5), align 8, !tbaa !14
  store ptr %28, ptr %2, align 8, !tbaa !33
  call void @llvm.lifetime.start.p0(i64 4, ptr %3) #8
  %29 = load ptr, ptr %2, align 8, !tbaa !33
  %30 = getelementptr inbounds nuw %struct._zend_array, ptr %29, i32 0, i32 4
  %31 = load i32, ptr %30, align 8, !tbaa !34
  store i32 %31, ptr %3, align 4, !tbaa !8
  call void @llvm.lifetime.start.p0(i64 8, ptr %4) #8
  %32 = load ptr, ptr %2, align 8, !tbaa !33
  %33 = getelementptr inbounds nuw %struct._zend_array, ptr %32, i32 0, i32 1
  %34 = load i32, ptr %33, align 8, !tbaa !35
  %35 = xor i32 %34, -1
  %36 = and i32 %35, 4
  %37 = zext i32 %36 to i64
  %38 = mul i64 %37, 4
  %39 = add i64 16, %38
  store i64 %39, ptr %4, align 8, !tbaa !36
  call void @llvm.lifetime.start.p0(i64 8, ptr %5) #8
  %40 = load ptr, ptr %2, align 8, !tbaa !33
  %41 = getelementptr inbounds nuw %struct._zend_array, ptr %40, i32 0, i32 3
  %42 = load ptr, ptr %41, align 8, !tbaa !35
  store ptr %42, ptr %5, align 8, !tbaa !37
  br label %43

43:                                               ; preds = %66, %27
  %44 = load i32, ptr %3, align 4, !tbaa !8
  %45 = icmp ugt i32 %44, 0
  br i1 %45, label %46, label %72

46:                                               ; preds = %43
  %47 = load ptr, ptr %5, align 8, !tbaa !37
  %48 = call zeroext i8 @zval_get_type(ptr noundef %47)
  %49 = zext i8 %48 to i32
  %50 = icmp eq i32 %49, 0
  %51 = xor i1 %50, true
  %52 = xor i1 %51, true
  %53 = zext i1 %52 to i32
  %54 = sext i32 %53 to i64
  %55 = call i64 @llvm.expect.i64(i64 %54, i64 0)
  %56 = icmp ne i64 %55, 0
  br i1 %56, label %57, label %58

57:                                               ; preds = %46
  br label %66

58:                                               ; preds = %46
  %59 = load ptr, ptr %5, align 8, !tbaa !37
  %60 = getelementptr inbounds nuw %struct._zval_struct, ptr %59, i32 0, i32 0
  %61 = load ptr, ptr %60, align 8, !tbaa !35
  store ptr %61, ptr %1, align 8, !tbaa !39
  %62 = load ptr, ptr %1, align 8, !tbaa !39
  %63 = getelementptr inbounds nuw %struct._zend_internal_function, ptr %62, i32 0, i32 12
  %64 = load i32, ptr %63, align 8, !tbaa !41
  %65 = add i32 %64, 1
  store i32 %65, ptr %63, align 8, !tbaa !41
  br label %66

66:                                               ; preds = %58, %57
  %67 = load ptr, ptr %5, align 8, !tbaa !37
  %68 = load i64, ptr %4, align 8, !tbaa !36
  %69 = getelementptr inbounds nuw i8, ptr %67, i64 %68
  store ptr %69, ptr %5, align 8, !tbaa !37
  %70 = load i32, ptr %3, align 4, !tbaa !8
  %71 = add i32 %70, -1
  store i32 %71, ptr %3, align 4, !tbaa !8
  br label %43

72:                                               ; preds = %43
  call void @llvm.lifetime.end.p0(i64 8, ptr %5) #8
  call void @llvm.lifetime.end.p0(i64 8, ptr %4) #8
  call void @llvm.lifetime.end.p0(i64 4, ptr %3) #8
  call void @llvm.lifetime.end.p0(i64 8, ptr %2) #8
  br label %73

73:                                               ; preds = %72
  br label %74

74:                                               ; preds = %73
  call void @llvm.lifetime.start.p0(i64 8, ptr %6) #8
  br label %75

75:                                               ; preds = %74
  call void @llvm.lifetime.start.p0(i64 8, ptr %7) #8
  %76 = load ptr, ptr getelementptr inbounds nuw (%struct._zend_compiler_globals, ptr @compiler_globals, i32 0, i32 6), align 8, !tbaa !47
  store ptr %76, ptr %7, align 8, !tbaa !33
  call void @llvm.lifetime.start.p0(i64 8, ptr %8) #8
  %77 = load ptr, ptr %7, align 8, !tbaa !33
  %78 = getelementptr inbounds nuw %struct._zend_array, ptr %77, i32 0, i32 3
  %79 = load ptr, ptr %78, align 8, !tbaa !35
  %80 = getelementptr inbounds %struct._Bucket, ptr %79, i64 0
  store ptr %80, ptr %8, align 8, !tbaa !48
  call void @llvm.lifetime.start.p0(i64 8, ptr %9) #8
  %81 = load ptr, ptr %7, align 8, !tbaa !33
  %82 = getelementptr inbounds nuw %struct._zend_array, ptr %81, i32 0, i32 3
  %83 = load ptr, ptr %82, align 8, !tbaa !35
  %84 = load ptr, ptr %7, align 8, !tbaa !33
  %85 = getelementptr inbounds nuw %struct._zend_array, ptr %84, i32 0, i32 4
  %86 = load i32, ptr %85, align 8, !tbaa !34
  %87 = zext i32 %86 to i64
  %88 = getelementptr inbounds nuw %struct._Bucket, ptr %83, i64 %87
  store ptr %88, ptr %9, align 8, !tbaa !48
  %89 = load ptr, ptr %7, align 8, !tbaa !33
  %90 = getelementptr inbounds nuw %struct._zend_array, ptr %89, i32 0, i32 1
  %91 = load i32, ptr %90, align 8, !tbaa !35
  %92 = and i32 %91, 4
  %93 = icmp ne i32 %92, 0
  %94 = xor i1 %93, true
  call void @llvm.assume(i1 %94)
  br label %95

95:                                               ; preds = %176, %75
  %96 = load ptr, ptr %8, align 8, !tbaa !48
  %97 = load ptr, ptr %9, align 8, !tbaa !48
  %98 = icmp ne ptr %96, %97
  br i1 %98, label %99, label %179

99:                                               ; preds = %95
  call void @llvm.lifetime.start.p0(i64 8, ptr %10) #8
  %100 = load ptr, ptr %8, align 8, !tbaa !48
  %101 = getelementptr inbounds nuw %struct._Bucket, ptr %100, i32 0, i32 0
  store ptr %101, ptr %10, align 8, !tbaa !37
  %102 = load ptr, ptr %10, align 8, !tbaa !37
  %103 = call zeroext i8 @zval_get_type(ptr noundef %102)
  %104 = zext i8 %103 to i32
  %105 = icmp eq i32 %104, 0
  %106 = xor i1 %105, true
  %107 = xor i1 %106, true
  %108 = zext i1 %107 to i32
  %109 = sext i32 %108 to i64
  %110 = call i64 @llvm.expect.i64(i64 %109, i64 0)
  %111 = icmp ne i64 %110, 0
  br i1 %111, label %112, label %113

112:                                              ; preds = %99
  store i32 11, ptr %11, align 4
  br label %173

113:                                              ; preds = %99
  %114 = load ptr, ptr %10, align 8, !tbaa !37
  %115 = getelementptr inbounds nuw %struct._zval_struct, ptr %114, i32 0, i32 0
  %116 = load ptr, ptr %115, align 8, !tbaa !35
  store ptr %116, ptr %6, align 8, !tbaa !50
  br label %117

117:                                              ; preds = %113
  call void @llvm.lifetime.start.p0(i64 8, ptr %12) #8
  %118 = load ptr, ptr %6, align 8, !tbaa !50
  %119 = getelementptr inbounds nuw %struct._zend_class_entry, ptr %118, i32 0, i32 10
  store ptr %119, ptr %12, align 8, !tbaa !33
  call void @llvm.lifetime.start.p0(i64 8, ptr %13) #8
  %120 = load ptr, ptr %12, align 8, !tbaa !33
  %121 = getelementptr inbounds nuw %struct._zend_array, ptr %120, i32 0, i32 3
  %122 = load ptr, ptr %121, align 8, !tbaa !35
  %123 = getelementptr inbounds %struct._Bucket, ptr %122, i64 0
  store ptr %123, ptr %13, align 8, !tbaa !48
  call void @llvm.lifetime.start.p0(i64 8, ptr %14) #8
  %124 = load ptr, ptr %12, align 8, !tbaa !33
  %125 = getelementptr inbounds nuw %struct._zend_array, ptr %124, i32 0, i32 3
  %126 = load ptr, ptr %125, align 8, !tbaa !35
  %127 = load ptr, ptr %12, align 8, !tbaa !33
  %128 = getelementptr inbounds nuw %struct._zend_array, ptr %127, i32 0, i32 4
  %129 = load i32, ptr %128, align 8, !tbaa !34
  %130 = zext i32 %129 to i64
  %131 = getelementptr inbounds nuw %struct._Bucket, ptr %126, i64 %130
  store ptr %131, ptr %14, align 8, !tbaa !48
  %132 = load ptr, ptr %12, align 8, !tbaa !33
  %133 = getelementptr inbounds nuw %struct._zend_array, ptr %132, i32 0, i32 1
  %134 = load i32, ptr %133, align 8, !tbaa !35
  %135 = and i32 %134, 4
  %136 = icmp ne i32 %135, 0
  %137 = xor i1 %136, true
  call void @llvm.assume(i1 %137)
  br label %138

138:                                              ; preds = %167, %117
  %139 = load ptr, ptr %13, align 8, !tbaa !48
  %140 = load ptr, ptr %14, align 8, !tbaa !48
  %141 = icmp ne ptr %139, %140
  br i1 %141, label %142, label %170

142:                                              ; preds = %138
  call void @llvm.lifetime.start.p0(i64 8, ptr %15) #8
  %143 = load ptr, ptr %13, align 8, !tbaa !48
  %144 = getelementptr inbounds nuw %struct._Bucket, ptr %143, i32 0, i32 0
  store ptr %144, ptr %15, align 8, !tbaa !37
  %145 = load ptr, ptr %15, align 8, !tbaa !37
  %146 = call zeroext i8 @zval_get_type(ptr noundef %145)
  %147 = zext i8 %146 to i32
  %148 = icmp eq i32 %147, 0
  %149 = xor i1 %148, true
  %150 = xor i1 %149, true
  %151 = zext i1 %150 to i32
  %152 = sext i32 %151 to i64
  %153 = call i64 @llvm.expect.i64(i64 %152, i64 0)
  %154 = icmp ne i64 %153, 0
  br i1 %154, label %155, label %156

155:                                              ; preds = %142
  store i32 16, ptr %11, align 4
  br label %164

156:                                              ; preds = %142
  %157 = load ptr, ptr %15, align 8, !tbaa !37
  %158 = getelementptr inbounds nuw %struct._zval_struct, ptr %157, i32 0, i32 0
  %159 = load ptr, ptr %158, align 8, !tbaa !35
  store ptr %159, ptr %1, align 8, !tbaa !39
  %160 = load ptr, ptr %1, align 8, !tbaa !39
  %161 = getelementptr inbounds nuw %struct._zend_internal_function, ptr %160, i32 0, i32 12
  %162 = load i32, ptr %161, align 8, !tbaa !41
  %163 = add i32 %162, 1
  store i32 %163, ptr %161, align 8, !tbaa !41
  store i32 0, ptr %11, align 4
  br label %164

164:                                              ; preds = %156, %155
  call void @llvm.lifetime.end.p0(i64 8, ptr %15) #8
  %165 = load i32, ptr %11, align 4
  switch i32 %165, label %183 [
    i32 0, label %166
    i32 16, label %167
  ]

166:                                              ; preds = %164
  br label %167

167:                                              ; preds = %166, %164
  %168 = load ptr, ptr %13, align 8, !tbaa !48
  %169 = getelementptr inbounds nuw %struct._Bucket, ptr %168, i32 1
  store ptr %169, ptr %13, align 8, !tbaa !48
  br label %138

170:                                              ; preds = %138
  call void @llvm.lifetime.end.p0(i64 8, ptr %14) #8
  call void @llvm.lifetime.end.p0(i64 8, ptr %13) #8
  call void @llvm.lifetime.end.p0(i64 8, ptr %12) #8
  br label %171

171:                                              ; preds = %170
  br label %172

172:                                              ; preds = %171
  store i32 0, ptr %11, align 4
  br label %173

173:                                              ; preds = %172, %112
  call void @llvm.lifetime.end.p0(i64 8, ptr %10) #8
  %174 = load i32, ptr %11, align 4
  switch i32 %174, label %183 [
    i32 0, label %175
    i32 11, label %176
  ]

175:                                              ; preds = %173
  br label %176

176:                                              ; preds = %175, %173
  %177 = load ptr, ptr %8, align 8, !tbaa !48
  %178 = getelementptr inbounds nuw %struct._Bucket, ptr %177, i32 1
  store ptr %178, ptr %8, align 8, !tbaa !48
  br label %95

179:                                              ; preds = %95
  call void @llvm.lifetime.end.p0(i64 8, ptr %9) #8
  call void @llvm.lifetime.end.p0(i64 8, ptr %8) #8
  call void @llvm.lifetime.end.p0(i64 8, ptr %7) #8
  br label %180

180:                                              ; preds = %179
  br label %181

181:                                              ; preds = %180
  call void @llvm.lifetime.end.p0(i64 8, ptr %6) #8
  call void @llvm.lifetime.end.p0(i64 8, ptr %1) #8
  br label %182

182:                                              ; preds = %181, %0
  ret void

183:                                              ; preds = %173, %164
  unreachable
}