; Function Attrs: nounwind uwtable
define dso_local void @zend_observer_post_startup() local_unnamed_addr #0 {
  %1 = load i64, ptr getelementptr inbounds nuw (i8, ptr @zend_observers_fcall_list, i64 16), align 8, !tbaa !10
  %.not = icmp eq i64 %1, 0
  br i1 %.not, label %.loopexit40, label %2

2:                                                ; preds = %0
  %3 = trunc i64 %1 to i32
  %4 = shl nsw i32 %3, 1
  %5 = tail call i32 @zend_get_op_array_extension_handles(ptr noundef nonnull @.str, i32 noundef %4) #8
  store i32 %5, ptr @zend_observer_fcall_op_array_extension, align 4, !tbaa !8
  %6 = load i64, ptr getelementptr inbounds nuw (i8, ptr @zend_observers_fcall_list, i64 16), align 8, !tbaa !10
  %7 = trunc i64 %6 to i32
  %8 = shl nsw i32 %7, 1
  %9 = tail call i32 @zend_get_internal_function_extension_handles(ptr noundef nonnull @.str, i32 noundef %8) #8
  store i32 %9, ptr @zend_observer_fcall_internal_function_extension, align 4, !tbaa !8
  tail call void @zend_vm_set_opcode_handler(ptr noundef nonnull getelementptr inbounds nuw (i8, ptr @executor_globals, i64 1640)) #8
  tail call void @zend_vm_set_opcode_handler(ptr noundef nonnull getelementptr inbounds nuw (i8, ptr @executor_globals, i64 984)) #8
  tail call void @zend_vm_set_opcode_handler(ptr noundef nonnull getelementptr inbounds nuw (i8, ptr @executor_globals, i64 1016)) #8
  tail call void @zend_vm_set_opcode_handler(ptr noundef nonnull getelementptr inbounds nuw (i8, ptr @executor_globals, i64 1048)) #8
  %10 = load ptr, ptr getelementptr inbounds nuw (i8, ptr @compiler_globals, i64 56), align 8, !tbaa !14
  %11 = getelementptr inbounds nuw i8, ptr %10, i64 24
  %12 = load i32, ptr %11, align 8, !tbaa !33
  %.not3541 = icmp eq i32 %12, 0
  br i1 %.not3541, label %._crit_edge, label %.lr.ph

.lr.ph:                                           ; preds = %2
  %13 = getelementptr inbounds nuw i8, ptr %10, i64 16
  %14 = load ptr, ptr %13, align 8, !tbaa !34
  %15 = getelementptr inbounds nuw i8, ptr %10, i64 8
  %16 = load i32, ptr %15, align 8, !tbaa !34
  %17 = shl i32 %16, 2
  %18 = and i32 %17, 16
  %19 = xor i32 %18, 16
  %20 = zext nneg i32 %19 to i64
  br label %21

21:                                               ; preds = %.lr.ph, %30
  %.043 = phi i32 [ %12, %.lr.ph ], [ %33, %30 ]
  %.03242 = phi ptr [ %14, %.lr.ph ], [ %32, %30 ]
  %22 = getelementptr inbounds nuw i8, ptr %.03242, i64 8
  %23 = load i8, ptr %22, align 8, !tbaa !34
  %24 = icmp eq i8 %23, 0
  br i1 %24, label %30, label %25, !prof !35

25:                                               ; preds = %21
  %26 = load ptr, ptr %.03242, align 8, !tbaa !34
  %27 = getelementptr inbounds nuw i8, ptr %26, i64 72
  %28 = load i32, ptr %27, align 8, !tbaa !36
  %29 = add i32 %28, 1
  store i32 %29, ptr %27, align 8, !tbaa !36
  br label %30

30:                                               ; preds = %21, %25
  %31 = getelementptr inbounds nuw i8, ptr %.03242, i64 %20
  %32 = getelementptr inbounds nuw i8, ptr %31, i64 16
  %33 = add i32 %.043, -1
  %.not35 = icmp eq i32 %33, 0
  br i1 %.not35, label %._crit_edge, label %21

._crit_edge:                                      ; preds = %30, %2
  %34 = load ptr, ptr getelementptr inbounds nuw (i8, ptr @compiler_globals, i64 64), align 8, !tbaa !42
  %35 = getelementptr inbounds nuw i8, ptr %34, i64 16
  %36 = load ptr, ptr %35, align 8, !tbaa !34
  %37 = getelementptr inbounds nuw i8, ptr %34, i64 24
  %38 = load i32, ptr %37, align 8, !tbaa !33
  %39 = zext i32 %38 to i64
  %40 = getelementptr inbounds nuw %struct._Bucket, ptr %36, i64 %39
  %41 = getelementptr inbounds nuw i8, ptr %34, i64 8
  %42 = load i32, ptr %41, align 8, !tbaa !34
  %43 = and i32 %42, 4
  %.not36 = icmp eq i32 %43, 0
  tail call void @llvm.assume(i1 %.not36)
  %.not3748 = icmp eq i32 %38, 0
  br i1 %.not3748, label %.loopexit40, label %.lr.ph51

.lr.ph51:                                         ; preds = %._crit_edge, %.loopexit
  %.03349 = phi ptr [ %68, %.loopexit ], [ %36, %._crit_edge ]
  %44 = getelementptr inbounds nuw i8, ptr %.03349, i64 8
  %45 = load i8, ptr %44, align 8, !tbaa !34
  %46 = icmp eq i8 %45, 0
  br i1 %46, label %.loopexit, label %47, !prof !35

47:                                               ; preds = %.lr.ph51
  %48 = load ptr, ptr %.03349, align 8, !tbaa !34
  %49 = getelementptr inbounds nuw i8, ptr %48, i64 80
  %50 = load ptr, ptr %49, align 8, !tbaa !34
  %51 = getelementptr inbounds nuw i8, ptr %48, i64 88
  %52 = load i32, ptr %51, align 8, !tbaa !33
  %53 = zext i32 %52 to i64
  %54 = getelementptr inbounds nuw %struct._Bucket, ptr %50, i64 %53
  %55 = getelementptr inbounds nuw i8, ptr %48, i64 72
  %56 = load i32, ptr %55, align 8, !tbaa !34
  %57 = and i32 %56, 4
  %.not38 = icmp eq i32 %57, 0
  tail call void @llvm.assume(i1 %.not38)
  %.not3944 = icmp eq i32 %52, 0
  br i1 %.not3944, label %.loopexit, label %.lr.ph47

.lr.ph47:                                         ; preds = %47, %66
  %.03145 = phi ptr [ %67, %66 ], [ %50, %47 ]
  %58 = getelementptr inbounds nuw i8, ptr %.03145, i64 8
  %59 = load i8, ptr %58, align 8, !tbaa !34
  %60 = icmp eq i8 %59, 0
  br i1 %60, label %66, label %61, !prof !35

61:                                               ; preds = %.lr.ph47
  %62 = load ptr, ptr %.03145, align 8, !tbaa !34
  %63 = getelementptr inbounds nuw i8, ptr %62, i64 72
  %64 = load i32, ptr %63, align 8, !tbaa !36
  %65 = add i32 %64, 1
  store i32 %65, ptr %63, align 8, !tbaa !36
  br label %66

66:                                               ; preds = %.lr.ph47, %61
  %67 = getelementptr inbounds nuw i8, ptr %.03145, i64 32
  %.not39 = icmp eq ptr %67, %54
  br i1 %.not39, label %.loopexit, label %.lr.ph47

.loopexit:                                        ; preds = %66, %47, %.lr.ph51
  %68 = getelementptr inbounds nuw i8, ptr %.03349, i64 32
  %.not37 = icmp eq ptr %68, %40
  br i1 %.not37, label %.loopexit40, label %.lr.ph51

.loopexit40:                                      ; preds = %.loopexit, %._crit_edge, %0
  ret void
}